target datalayout = "e-m:e-p270:32:32-p271:32:32-p272:64:64-i64:64-i128:128-f80:128-n8:16:32:64-S128"
target triple = "x86_64-pc-linux-gnu"

%struct.ossl_cmp_crlstatus_st = type { ptr, ptr }
%struct.ossl_cmp_crlsource_st = type { i32, %union.anon.1 }
%union.anon.1 = type { ptr }

@.str.12 = private unnamed_addr constant [32 x i8] c"../openssl/crypto/cmp/cmp_asn.c\00", align 1
@__func__.OSSL_CMP_CRLSTATUS_get0 = private unnamed_addr constant [24 x i8] c"OSSL_CMP_CRLSTATUS_get0\00", align 1

; Function Attrs: nounwind uwtable
define i32 @OSSL_CMP_CRLSTATUS_get0(ptr noundef %0, ptr noundef %1, ptr noundef %2, ptr noundef %3) #0 {
  %5 = alloca i32, align 4
  %6 = alloca ptr, align 8
  %7 = alloca ptr, align 8
  %8 = alloca ptr, align 8
  %9 = alloca ptr, align 8
  %10 = alloca ptr, align 8
  %11 = alloca i32, align 4
  store ptr %0, ptr %6, align 8, !tbaa !48
  store ptr %1, ptr %7, align 8, !tbaa !136
  store ptr %2, ptr %8, align 8, !tbaa !138
  store ptr %3, ptr %9, align 8, !tbaa !140
  call void @llvm.lifetime.start.p0(i64 8, ptr %10) #4
  %12 = load ptr, ptr %6, align 8, !tbaa !48
  %13 = icmp eq ptr %12, null
  br i1 %13, label %20, label %14

14:                                               ; preds = %4
  %15 = load ptr, ptr %7, align 8, !tbaa !136
  %16 = icmp eq ptr %15, null
  br i1 %16, label %20, label %17

17:                                               ; preds = %14
  %18 = load ptr, ptr %8, align 8, !tbaa !138
  %19 = icmp eq ptr %18, null
  br i1 %19, label %20, label %21

20:                                               ; preds = %17, %14, %4
  call void @ERR_new()
  call void @ERR_set_debug(ptr noundef @.str.12, i32 noundef 766, ptr noundef @__func__.OSSL_CMP_CRLSTATUS_get0)
  call void (i32, i32, ptr, ...) @ERR_set_error(i32 noundef 58, i32 noundef 103, ptr noundef null)
  store i32 0, ptr %5, align 4
  store i32 1, ptr %11, align 4
  br label %60

21:                                               ; preds = %17
  %22 = load ptr, ptr %6, align 8, !tbaa !48
  %23 = getelementptr inbounds nuw %struct.ossl_cmp_crlstatus_st, ptr %22, i32 0, i32 0
  %24 = load ptr, ptr %23, align 8, !tbaa !107
  store ptr %24, ptr %10, align 8, !tbaa !44
  %25 = icmp eq ptr %24, null
  br i1 %25, label %26, label %27

26:                                               ; preds = %21
  call void @ERR_new()
  call void @ERR_set_debug(ptr noundef @.str.12, i32 noundef 770, ptr noundef @__func__.OSSL_CMP_CRLSTATUS_get0)
  call void (i32, i32, ptr, ...) @ERR_set_error(i32 noundef 58, i32 noundef 524550, ptr noundef null)
  store i32 0, ptr %5, align 4
  store i32 1, ptr %11, align 4
  br label %60

27:                                               ; preds = %21
  %28 = load ptr, ptr %10, align 8, !tbaa !44
  %29 = getelementptr inbounds nuw %struct.ossl_cmp_crlsource_st, ptr %28, i32 0, i32 0
  %30 = load i32, ptr %29, align 8, !tbaa !109
  %31 = icmp eq i32 %30, 0
  br i1 %31, label %32, label %38

32:                                               ; preds = %27
  %33 = load ptr, ptr %10, align 8, !tbaa !44
  %34 = getelementptr inbounds nuw %struct.ossl_cmp_crlsource_st, ptr %33, i32 0, i32 1
  %35 = load ptr, ptr %34, align 8, !tbaa !56
  %36 = load ptr, ptr %7, align 8, !tbaa !136
  store ptr %35, ptr %36, align 8, !tbaa !103
  %37 = load ptr, ptr %8, align 8, !tbaa !138
  store ptr null, ptr %37, align 8, !tbaa !105
  br label %51

38:                                               ; preds = %27
  %39 = load ptr, ptr %10, align 8, !tbaa !44
  %40 = getelementptr inbounds nuw %struct.ossl_cmp_crlsource_st, ptr %39, i32 0, i32 0
  %41 = load i32, ptr %40, align 8, !tbaa !109
  %42 = icmp eq i32 %41, 1
  br i1 %42, label %43, label %49

43:                                               ; preds = %38
  %44 = load ptr, ptr %7, align 8, !tbaa !136
  store ptr null, ptr %44, align 8, !tbaa !103
  %45 = load ptr, ptr %10, align 8, !tbaa !44
  %46 = getelementptr inbounds nuw %struct.ossl_cmp_crlsource_st, ptr %45, i32 0, i32 1
  %47 = load ptr, ptr %46, align 8, !tbaa !56
  %48 = load ptr, ptr %8, align 8, !tbaa !138
  store ptr %47, ptr %48, align 8, !tbaa !105
  br label %50

49:                                               ; preds = %38
  call void @ERR_new()
  call void @ERR_set_debug(ptr noundef @.str.12, i32 noundef 781, ptr noundef @__func__.OSSL_CMP_CRLSTATUS_get0)
  call void (i32, i32, ptr, ...) @ERR_set_error(i32 noundef 58, i32 noundef 524550, ptr noundef null)
  store i32 0, ptr %5, align 4
  store i32 1, ptr %11, align 4
  br label %60

50:                                               ; preds = %43
  br label %51

51:                                               ; preds = %50, %32
  %52 = load ptr, ptr %9, align 8, !tbaa !140
  %53 = icmp ne ptr %52, null
  br i1 %53, label %54, label %59

54:                                               ; preds = %51
  %55 = load ptr, ptr %6, align 8, !tbaa !48
  %56 = getelementptr inbounds nuw %struct.ossl_cmp_crlstatus_st, ptr %55, i32 0, i32 1
  %57 = load ptr, ptr %56, align 8, !tbaa !111
  %58 = load ptr, ptr %9, align 8, !tbaa !140
  store ptr %57, ptr %58, align 8, !tbaa !97
  br label %59

59:                                               ; preds = %54, %51
  store i32 1, ptr %5, align 4
  store i32 1, ptr %11, align 4
  br label %60

60:                                               ; preds = %59, %49, %26, %20
  call void @llvm.lifetime.end.p0(i64 8, ptr %10) #4
  %61 = load i32, ptr %5, align 4
  ret i32 %61
}