; Function Attrs: nounwind uwtable
define range(i32 0, 2) i32 @OSSL_CMP_CRLSTATUS_get0(ptr noundef readonly captures(address_is_null) %0, ptr noundef writeonly captures(address_is_null) %1, ptr noundef writeonly captures(address_is_null) %2, ptr noundef writeonly captures(address_is_null) %3) local_unnamed_addr #1 {
  %5 = icmp eq ptr %0, null
  %6 = icmp eq ptr %1, null
  %or.cond = or i1 %5, %6
  %7 = icmp eq ptr %2, null
  %or.cond3 = or i1 %or.cond, %7
  br i1 %or.cond3, label %8, label %9

8:                                                ; preds = %4
  tail call void @ERR_new() #6
  tail call void @ERR_set_debug(ptr noundef nonnull @.str.12, i32 noundef 766, ptr noundef nonnull @__func__.OSSL_CMP_CRLSTATUS_get0) #6
  tail call void (i32, i32, ptr, ...) @ERR_set_error(i32 noundef 58, i32 noundef 103, ptr noundef null) #6
  br label %26

9:                                                ; preds = %4
  %10 = load ptr, ptr %0, align 8, !tbaa !37
  %11 = icmp eq ptr %10, null
  br i1 %11, label %12, label %13

12:                                               ; preds = %9
  tail call void @ERR_new() #6
  tail call void @ERR_set_debug(ptr noundef nonnull @.str.12, i32 noundef 770, ptr noundef nonnull @__func__.OSSL_CMP_CRLSTATUS_get0) #6
  tail call void (i32, i32, ptr, ...) @ERR_set_error(i32 noundef 58, i32 noundef 524550, ptr noundef null) #6
  br label %26

13:                                               ; preds = %9
  %14 = load i32, ptr %10, align 8, !tbaa !41
  switch i32 %14, label %21 [
    i32 0, label %15
    i32 1, label %18
  ]

15:                                               ; preds = %13
  %16 = getelementptr inbounds nuw i8, ptr %10, i64 8
  %17 = load ptr, ptr %16, align 8, !tbaa !9
  store ptr %17, ptr %1, align 8, !tbaa !59
  br label %22

18:                                               ; preds = %13
  store ptr null, ptr %1, align 8, !tbaa !59
  %19 = getelementptr inbounds nuw i8, ptr %10, i64 8
  %20 = load ptr, ptr %19, align 8, !tbaa !9
  br label %22

21:                                               ; preds = %13
  tail call void @ERR_new() #6
  tail call void @ERR_set_debug(ptr noundef nonnull @.str.12, i32 noundef 781, ptr noundef nonnull @__func__.OSSL_CMP_CRLSTATUS_get0) #6
  tail call void (i32, i32, ptr, ...) @ERR_set_error(i32 noundef 58, i32 noundef 524550, ptr noundef null) #6
  br label %26

22:                                               ; preds = %18, %15
  %storemerge = phi ptr [ %20, %18 ], [ null, %15 ]
  store ptr %storemerge, ptr %2, align 8, !tbaa !60
  %.not = icmp eq ptr %3, null
  br i1 %.not, label %26, label %23

23:                                               ; preds = %22
  %24 = getelementptr inbounds nuw i8, ptr %0, i64 8
  %25 = load ptr, ptr %24, align 8, !tbaa !44
  store ptr %25, ptr %3, align 8, !tbaa !61
  br label %26

26:                                               ; preds = %22, %23, %21, %12, %8
  %.0 = phi i32 [ 0, %8 ], [ 0, %12 ], [ 0, %21 ], [ 1, %23 ], [ 1, %22 ]
  ret i32 %.0
}